target datalayout = "e-m:e-p270:32:32-p271:32:32-p272:64:64-i64:64-i128:128-f80:128-n8:16:32:64-S128"
target triple = "x86_64-pc-linux-gnu"

%struct.lzma_index_hash_s = type { i32, %struct.lzma_index_hash_info, %struct.lzma_index_hash_info, i64, i64, i64, i64, i32 }
%struct.lzma_index_hash_info = type { i64, i64, i64, i64, %struct.lzma_check_state }
%struct.lzma_check_state = type { %union.anon, %union.anon.0 }
%union.anon = type { [8 x i64] }
%union.anon.0 = type { %struct.lzma_sha256_state }
%struct.lzma_sha256_state = type { [8 x i32], i64 }

; Function Attrs: nounwind uwtable
define internal i64 @index_size_unpadded(i64 noundef %0, i64 noundef %1) #0 {
  %3 = alloca i64, align 8
  %4 = alloca i64, align 8
  store i64 %0, ptr %3, align 8
  store i64 %1, ptr %4, align 8
  %5 = load i64, ptr %3, align 8
  %6 = call i32 @lzma_vli_size(i64 noundef %5) #6
  %7 = add i32 1, %6
  %8 = zext i32 %7 to i64
  %9 = load i64, ptr %4, align 8
  %10 = add i64 %8, %9
  %11 = add i64 %10, 4
  ret i64 %11
}

; Function Attrs: nounwind uwtable
define internal i64 @vli_ceil4(i64 noundef %0) #0 {
  %2 = alloca i64, align 8
  store i64 %0, ptr %2, align 8
  %3 = load i64, ptr %2, align 8
  %4 = add i64 %3, 3
  %5 = and i64 %4, -4
  ret i64 %5
}

; Function Attrs: nounwind uwtable
define internal i64 @index_stream_size(i64 noundef %0, i64 noundef %1, i64 noundef %2) #0 {
  %4 = alloca i64, align 8
  %5 = alloca i64, align 8
  %6 = alloca i64, align 8
  store i64 %0, ptr %4, align 8
  store i64 %1, ptr %5, align 8
  store i64 %2, ptr %6, align 8
  %7 = load i64, ptr %4, align 8
  %8 = add i64 12, %7
  %9 = load i64, ptr %5, align 8
  %10 = load i64, ptr %6, align 8
  %11 = call i64 @index_size(i64 noundef %9, i64 noundef %10)
  %12 = add i64 %8, %11
  %13 = add i64 %12, 12
  ret i64 %13
}

; Function Attrs: nounwind uwtable
define internal i64 @index_size(i64 noundef %0, i64 noundef %1) #0 {
  %3 = alloca i64, align 8
  %4 = alloca i64, align 8
  store i64 %0, ptr %3, align 8
  store i64 %1, ptr %4, align 8
  %5 = load i64, ptr %3, align 8
  %6 = load i64, ptr %4, align 8
  %7 = call i64 @index_size_unpadded(i64 noundef %5, i64 noundef %6)
  %8 = call i64 @vli_ceil4(i64 noundef %7)
  ret i64 %8
}

; Function Attrs: nounwind uwtable
define internal i32 @hash_append(ptr noundef %0, i64 noundef %1, i64 noundef %2) #0 {
  %4 = alloca ptr, align 8
  %5 = alloca i64, align 8
  %6 = alloca i64, align 8
  %7 = alloca [2 x i64], align 16
  store ptr %0, ptr %4, align 8
  store i64 %1, ptr %5, align 8
  store i64 %2, ptr %6, align 8
  %8 = load i64, ptr %5, align 8
  %9 = call i64 @vli_ceil4(i64 noundef %8)
  %10 = load ptr, ptr %4, align 8
  %11 = getelementptr inbounds %struct.lzma_index_hash_info, ptr %10, i32 0, i32 0
  %12 = load i64, ptr %11, align 8
  %13 = add i64 %12, %9
  store i64 %13, ptr %11, align 8
  %14 = load i64, ptr %6, align 8
  %15 = load ptr, ptr %4, align 8
  %16 = getelementptr inbounds %struct.lzma_index_hash_info, ptr %15, i32 0, i32 1
  %17 = load i64, ptr %16, align 8
  %18 = add i64 %17, %14
  store i64 %18, ptr %16, align 8
  %19 = load i64, ptr %5, align 8
  %20 = call i32 @lzma_vli_size(i64 noundef %19) #6
  %21 = load i64, ptr %6, align 8
  %22 = call i32 @lzma_vli_size(i64 noundef %21) #6
  %23 = add i32 %20, %22
  %24 = zext i32 %23 to i64
  %25 = load ptr, ptr %4, align 8
  %26 = getelementptr inbounds %struct.lzma_index_hash_info, ptr %25, i32 0, i32 3
  %27 = load i64, ptr %26, align 8
  %28 = add i64 %27, %24
  store i64 %28, ptr %26, align 8
  %29 = load ptr, ptr %4, align 8
  %30 = getelementptr inbounds %struct.lzma_index_hash_info, ptr %29, i32 0, i32 2
  %31 = load i64, ptr %30, align 8
  %32 = add i64 %31, 1
  store i64 %32, ptr %30, align 8
  %33 = getelementptr inbounds [2 x i64], ptr %7, i64 0, i64 0
  %34 = load i64, ptr %5, align 8
  store i64 %34, ptr %33, align 8
  %35 = getelementptr inbounds i64, ptr %33, i64 1
  %36 = load i64, ptr %6, align 8
  store i64 %36, ptr %35, align 8
  %37 = load ptr, ptr %4, align 8
  %38 = getelementptr inbounds %struct.lzma_index_hash_info, ptr %37, i32 0, i32 4
  %39 = getelementptr inbounds [2 x i64], ptr %7, i64 0, i64 0
  call void @lzma_check_update(ptr noundef %38, i32 noundef 10, ptr noundef %39, i64 noundef 16)
  ret i32 0
}

; Function Attrs: nounwind uwtable
define dso_local i32 @lzma_index_hash_append(ptr noundef %0, i64 noundef %1, i64 noundef %2) #0 {
  %4 = alloca i32, align 4
  %5 = alloca ptr, align 8
  %6 = alloca i64, align 8
  %7 = alloca i64, align 8
  %8 = alloca i32, align 4
  store ptr %0, ptr %5, align 8
  store i64 %1, ptr %6, align 8
  store i64 %2, ptr %7, align 8
  %9 = load ptr, ptr %5, align 8
  %10 = getelementptr inbounds %struct.lzma_index_hash_s, ptr %9, i32 0, i32 0
  %11 = load i32, ptr %10, align 8
  %12 = icmp ne i32 %11, 0
  br i1 %12, label %22, label %13

13:                                               ; preds = %3
  %14 = load i64, ptr %6, align 8
  %15 = icmp ult i64 %14, 5
  br i1 %15, label %22, label %16

16:                                               ; preds = %13
  %17 = load i64, ptr %6, align 8
  %18 = icmp ugt i64 %17, 9223372036854775804
  br i1 %18, label %22, label %19

19:                                               ; preds = %16
  %20 = load i64, ptr %7, align 8
  %21 = icmp ugt i64 %20, 9223372036854775807
  br i1 %21, label %22, label %23

22:                                               ; preds = %19, %16, %13, %3
  store i32 11, ptr %4, align 4
  br label %75

23:                                               ; preds = %19
  br label %24

24:                                               ; preds = %23
  %25 = load ptr, ptr %5, align 8
  %26 = getelementptr inbounds %struct.lzma_index_hash_s, ptr %25, i32 0, i32 1
  %27 = load i64, ptr %6, align 8
  %28 = load i64, ptr %7, align 8
  %29 = call i32 @hash_append(ptr noundef %26, i64 noundef %27, i64 noundef %28)
  store i32 %29, ptr %8, align 4
  %30 = load i32, ptr %8, align 4
  %31 = icmp ne i32 %30, 0
  br i1 %31, label %32, label %34

32:                                               ; preds = %24
  %33 = load i32, ptr %8, align 4
  store i32 %33, ptr %4, align 4
  br label %75

34:                                               ; preds = %24
  br label %35

35:                                               ; preds = %34
  %36 = load ptr, ptr %5, align 8
  %37 = getelementptr inbounds %struct.lzma_index_hash_s, ptr %36, i32 0, i32 1
  %38 = getelementptr inbounds %struct.lzma_index_hash_info, ptr %37, i32 0, i32 0
  %39 = load i64, ptr %38, align 8
  %40 = icmp ugt i64 %39, 9223372036854775807
  br i1 %40, label %73, label %41

41:                                               ; preds = %35
  %42 = load ptr, ptr %5, align 8
  %43 = getelementptr inbounds %struct.lzma_index_hash_s, ptr %42, i32 0, i32 1
  %44 = getelementptr inbounds %struct.lzma_index_hash_info, ptr %43, i32 0, i32 1
  %45 = load i64, ptr %44, align 8
  %46 = icmp ugt i64 %45, 9223372036854775807
  br i1 %46, label %73, label %47

47:                                               ; preds = %41
  %48 = load ptr, ptr %5, align 8
  %49 = getelementptr inbounds %struct.lzma_index_hash_s, ptr %48, i32 0, i32 1
  %50 = getelementptr inbounds %struct.lzma_index_hash_info, ptr %49, i32 0, i32 2
  %51 = load i64, ptr %50, align 8
  %52 = load ptr, ptr %5, align 8
  %53 = getelementptr inbounds %struct.lzma_index_hash_s, ptr %52, i32 0, i32 1
  %54 = getelementptr inbounds %struct.lzma_index_hash_info, ptr %53, i32 0, i32 3
  %55 = load i64, ptr %54, align 8
  %56 = call i64 @index_size(i64 noundef %51, i64 noundef %55)
  %57 = icmp ugt i64 %56, 17179869184
  br i1 %57, label %73, label %58

58:                                               ; preds = %47
  %59 = load ptr, ptr %5, align 8
  %60 = getelementptr inbounds %struct.lzma_index_hash_s, ptr %59, i32 0, i32 1
  %61 = getelementptr inbounds %struct.lzma_index_hash_info, ptr %60, i32 0, i32 0
  %62 = load i64, ptr %61, align 8
  %63 = load ptr, ptr %5, align 8
  %64 = getelementptr inbounds %struct.lzma_index_hash_s, ptr %63, i32 0, i32 1
  %65 = getelementptr inbounds %struct.lzma_index_hash_info, ptr %64, i32 0, i32 2
  %66 = load i64, ptr %65, align 8
  %67 = load ptr, ptr %5, align 8
  %68 = getelementptr inbounds %struct.lzma_index_hash_s, ptr %67, i32 0, i32 1
  %69 = getelementptr inbounds %struct.lzma_index_hash_info, ptr %68, i32 0, i32 3
  %70 = load i64, ptr %69, align 8
  %71 = call i64 @index_stream_size(i64 noundef %62, i64 noundef %66, i64 noundef %70)
  %72 = icmp ugt i64 %71, 9223372036854775807
  br i1 %72, label %73, label %74

73:                                               ; preds = %58, %47, %41, %35
  store i32 9, ptr %4, align 4
  br label %75

74:                                               ; preds = %58
  store i32 0, ptr %4, align 4
  br label %75

75:                                               ; preds = %74, %73, %32, %22
  %76 = load i32, ptr %4, align 4
  ret i32 %76
}