; Function Attrs: nounwind uwtable
define dso_local range(i32 0, 12) i32 @lzma_index_hash_append(ptr noundef %0, i64 noundef %1, i64 noundef %2) local_unnamed_addr #0 {
  %4 = alloca [2 x i64], align 16
  %5 = load i32, ptr %0, align 8
  %6 = icmp ne i32 %5, 0
  %7 = add i64 %1, -9223372036854775805
  %8 = icmp ult i64 %7, -9223372036854775800
  %or.cond3 = or i1 %8, %6
  %9 = icmp slt i64 %2, 0
  %or.cond5 = or i1 %9, %or.cond3
  br i1 %or.cond5, label %50, label %10

10:                                               ; preds = %3
  %11 = getelementptr inbounds nuw i8, ptr %0, i64 8
  call void @llvm.lifetime.start.p0(i64 16, ptr nonnull %4)
  %12 = add nuw nsw i64 %1, 3
  %13 = and i64 %12, 9223372036854775804
  %14 = load i64, ptr %11, align 8
  %15 = add i64 %14, %13
  store i64 %15, ptr %11, align 8
  %16 = getelementptr inbounds nuw i8, ptr %0, i64 16
  %17 = load i64, ptr %16, align 8
  %18 = add i64 %17, %2
  store i64 %18, ptr %16, align 8
  %19 = tail call i32 @lzma_vli_size(i64 noundef %1) #10
  %20 = tail call i32 @lzma_vli_size(i64 noundef %2) #10
  %21 = add i32 %20, %19
  %22 = zext i32 %21 to i64
  %23 = getelementptr inbounds nuw i8, ptr %0, i64 32
  %24 = load i64, ptr %23, align 8
  %25 = add i64 %24, %22
  store i64 %25, ptr %23, align 8
  %26 = getelementptr inbounds nuw i8, ptr %0, i64 24
  %27 = load i64, ptr %26, align 8
  %28 = add i64 %27, 1
  store i64 %28, ptr %26, align 8
  store i64 %1, ptr %4, align 16
  %29 = getelementptr inbounds nuw i8, ptr %4, i64 8
  store i64 %2, ptr %29, align 8
  %30 = getelementptr inbounds nuw i8, ptr %0, i64 40
  call void @lzma_check_update(ptr noundef nonnull %30, i32 noundef 10, ptr noundef nonnull %4, i64 noundef 16) #9
  call void @llvm.lifetime.end.p0(i64 16, ptr nonnull %4)
  %31 = load i64, ptr %11, align 8
  %32 = icmp slt i64 %31, 0
  br i1 %32, label %50, label %33

33:                                               ; preds = %10
  %34 = load i64, ptr %16, align 8
  %35 = icmp slt i64 %34, 0
  br i1 %35, label %50, label %36

36:                                               ; preds = %33
  %37 = load i64, ptr %26, align 8
  %38 = load i64, ptr %23, align 8
  %39 = call i32 @lzma_vli_size(i64 noundef %37) #10
  %40 = add i32 %39, 1
  %41 = zext i32 %40 to i64
  %42 = add i64 %38, 7
  %43 = add i64 %42, %41
  %44 = and i64 %43, -4
  %45 = icmp ugt i64 %44, 17179869184
  br i1 %45, label %50, label %46

46:                                               ; preds = %36
  %47 = add nuw i64 %31, 24
  %48 = add nuw i64 %47, %44
  %49 = icmp slt i64 %48, 0
  %spec.select = select i1 %49, i32 9, i32 0
  br label %50

50:                                               ; preds = %46, %10, %33, %36, %3
  %.0 = phi i32 [ 11, %3 ], [ 9, %36 ], [ 9, %33 ], [ 9, %10 ], [ %spec.select, %46 ]
  ret i32 %.0
}